ccopy_reg
_reconstructor
p0
(cgoogle.oauth2.credentials
Credentials
p1
c__builtin__
object
p2
Ntp3
Rp4
(dp5
S'_quota_project_id'
p6
NsS'_token_uri'
p7
Vhttps://oauth2.googleapis.com/token
p8
sS'_client_secret'
p9
V36ggVImF0KYGY-kwfLlR8xDI
p10
sS'_id_token'
p11
NsS'token'
p12
Vya29.Il-5B448saukFDqp-ujCm6TOzCJrVoW9N1tDfLorc239PKobPgYCbXrpWkAxkcG0rIhTtXw4vWoch86bgpsPtar9Vy07ail3J2lDPpNQ4pzwWxsUqSk55NtX3GcsDPyogg
p13
sS'_refresh_token'
p14
V1//03Sgo99JhXAD2CgYIARAAGAMSNwF-L9IrtYrMS-5XDgvM0KNUjXBekmyprMui7l_qaiehtL8Llmdu86RoQNdURZ89JkocrW10A5Q
p15
sS'_scopes'
p16
(lp17
S'https://www.googleapis.com/auth/drive'
p18
asS'_client_id'
p19
V618856190457-0ibesdcql9nbe2339ln0poskpc5qu0ap.apps.googleusercontent.com
p20
sS'expiry'
p21
cdatetime
datetime
p22
(S'\x07\xe4\x01\x0c\x0b6#\x06O7'
p23
tp24
Rp25
sb.